target datalayout = "e-m:e-p270:32:32-p271:32:32-p272:64:64-i64:64-i128:128-f80:128-n8:16:32:64-S128"
target triple = "x86_64-pc-linux-gnu"

@hf_gtpv2_max_pkt_loss_rte_ul = internal global i32 0, align 4
@hf_gtpv2_max_pkt_loss_rte_dl = internal global i32 0, align 4
@dissect_gtpv2_max_pkt_loss_rte.flags_oct1 = internal constant [4 x ptr] [ptr @hf_gtpv2_spare_b7_b2, ptr @hf_gtpv2_max_pkt_loss_rte_dl_flg, ptr @hf_gtpv2_max_pkt_loss_rte_ul_flg, ptr null], align 16

; Function Attrs: null_pointer_is_valid sspstrong uwtable
define internal void @dissect_gtpv2_max_pkt_loss_rte(ptr noundef %0, ptr noundef %1, ptr noundef %2, ptr noundef %3, i16 noundef zeroext %4, i8 noundef zeroext %5, i8 noundef zeroext %6, ptr noundef %7) #1 {
  %9 = alloca ptr, align 8
  %10 = alloca ptr, align 8
  %11 = alloca ptr, align 8
  %12 = alloca ptr, align 8
  %13 = alloca i16, align 2
  %14 = alloca i8, align 1
  %15 = alloca i8, align 1
  %16 = alloca ptr, align 8
  %17 = alloca i32, align 4
  %18 = alloca i8, align 1
  store ptr %0, ptr %9, align 8
  store ptr %1, ptr %10, align 8
  store ptr %2, ptr %11, align 8
  store ptr %3, ptr %12, align 8
  store i16 %4, ptr %13, align 2
  store i8 %5, ptr %14, align 1
  store i8 %6, ptr %15, align 1
  store ptr %7, ptr %16, align 8
  call void @llvm.lifetime.start.p0(i64 4, ptr %17) #11
  store i32 0, ptr %17, align 4
  call void @llvm.lifetime.start.p0(i64 1, ptr %18) #11
  %19 = load ptr, ptr %9, align 8
  %20 = load i32, ptr %17, align 4
  %21 = call zeroext i8 @tvb_get_uint8(ptr noundef %19, i32 noundef %20)
  store i8 %21, ptr %18, align 1
  %22 = load ptr, ptr %11, align 8
  %23 = load ptr, ptr %9, align 8
  %24 = load i32, ptr %17, align 4
  call void @proto_tree_add_bitmask_list(ptr noundef %22, ptr noundef %23, i32 noundef %24, i32 noundef 1, ptr noundef @dissect_gtpv2_max_pkt_loss_rte.flags_oct1, i32 noundef 0)
  %25 = load i32, ptr %17, align 4
  %26 = add i32 %25, 1
  store i32 %26, ptr %17, align 4
  %27 = load i8, ptr %18, align 1
  %28 = zext i8 %27 to i32
  %29 = and i32 %28, 1
  %30 = icmp eq i32 %29, 1
  br i1 %30, label %31, label %39

31:                                               ; preds = %8
  %32 = load ptr, ptr %11, align 8
  %33 = load i32, ptr @hf_gtpv2_max_pkt_loss_rte_ul, align 4
  %34 = load ptr, ptr %9, align 8
  %35 = load i32, ptr %17, align 4
  %36 = call ptr @proto_tree_add_item(ptr noundef %32, i32 noundef %33, ptr noundef %34, i32 noundef %35, i32 noundef 2, i32 noundef 0)
  %37 = load i32, ptr %17, align 4
  %38 = add i32 %37, 2
  store i32 %38, ptr %17, align 4
  br label %39

39:                                               ; preds = %31, %8
  %40 = load i8, ptr %18, align 1
  %41 = zext i8 %40 to i32
  %42 = and i32 %41, 2
  %43 = icmp eq i32 %42, 2
  br i1 %43, label %44, label %50

44:                                               ; preds = %39
  %45 = load ptr, ptr %11, align 8
  %46 = load i32, ptr @hf_gtpv2_max_pkt_loss_rte_dl, align 4
  %47 = load ptr, ptr %9, align 8
  %48 = load i32, ptr %17, align 4
  %49 = call ptr @proto_tree_add_item(ptr noundef %45, i32 noundef %46, ptr noundef %47, i32 noundef %48, i32 noundef 2, i32 noundef 0)
  br label %50

50:                                               ; preds = %44, %39
  call void @llvm.lifetime.end.p0(i64 1, ptr %18) #11
  call void @llvm.lifetime.end.p0(i64 4, ptr %17) #11
  ret void
}