; Function Attrs: null_pointer_is_valid sspstrong uwtable
define internal void @dissect_gtpv2_max_pkt_loss_rte(ptr noundef %0, ptr readnone captures(none) %1, ptr noundef %2, ptr readnone captures(none) %3, i16 zeroext %4, i8 zeroext %5, i8 zeroext %6, ptr readnone captures(none) %7) #1 {
  %9 = tail call zeroext i8 @tvb_get_uint8(ptr noundef %0, i32 noundef 0)
  tail call void @proto_tree_add_bitmask_list(ptr noundef %2, ptr noundef %0, i32 noundef 0, i32 noundef 1, ptr noundef nonnull @dissect_gtpv2_max_pkt_loss_rte.flags_oct1, i32 noundef 0)
  %10 = zext i8 %9 to i32
  %11 = and i32 %10, 1
  %.not = icmp eq i32 %11, 0
  br i1 %.not, label %15, label %12

12:                                               ; preds = %8
  %13 = load i32, ptr @hf_gtpv2_max_pkt_loss_rte_ul, align 4
  %14 = tail call ptr @proto_tree_add_item(ptr noundef %2, i32 noundef %13, ptr noundef %0, i32 noundef 1, i32 noundef 2, i32 noundef 0)
  br label %15

15:                                               ; preds = %12, %8
  %.0 = phi i32 [ 3, %12 ], [ 1, %8 ]
  %16 = and i32 %10, 2
  %.not14 = icmp eq i32 %16, 0
  br i1 %.not14, label %20, label %17

17:                                               ; preds = %15
  %18 = load i32, ptr @hf_gtpv2_max_pkt_loss_rte_dl, align 4
  %19 = tail call ptr @proto_tree_add_item(ptr noundef %2, i32 noundef %18, ptr noundef %0, i32 noundef %.0, i32 noundef 2, i32 noundef 0)
  br label %20

20:                                               ; preds = %17, %15
  ret void
}